target datalayout = "e-m:e-p270:32:32-p271:32:32-p272:64:64-i64:64-i128:128-f80:128-n8:16:32:64-S128"
target triple = "x86_64-pc-linux-gnu"

%struct.AVRational = type { i32, i32 }
%struct.AVPacket = type { ptr, i64, i64, ptr, i32, i32, i32, ptr, i32, i64, i64, ptr, ptr, %struct.AVRational }
%struct.AVBufferRef = type { ptr, ptr, i64 }
%struct.AVPacketSideData = type { ptr, i64, i32 }

; Function Attrs: inlinehint nounwind uwtable
define internal i64 @av_make_q(i32 noundef %0, i32 noundef %1) #2 {
  %3 = alloca %struct.AVRational, align 4
  %4 = alloca i32, align 4
  %5 = alloca i32, align 4
  store i32 %0, ptr %4, align 4, !tbaa !28
  store i32 %1, ptr %5, align 4, !tbaa !28
  %6 = getelementptr inbounds nuw %struct.AVRational, ptr %3, i32 0, i32 0
  %7 = load i32, ptr %4, align 4, !tbaa !28
  store i32 %7, ptr %6, align 4, !tbaa !29
  %8 = getelementptr inbounds nuw %struct.AVRational, ptr %3, i32 0, i32 1
  %9 = load i32, ptr %5, align 4, !tbaa !28
  store i32 %9, ptr %8, align 4, !tbaa !30
  %10 = load i64, ptr %3, align 4
  ret i64 %10
}

; Function Attrs: nounwind uwtable
define internal void @get_packet_defaults(ptr noundef %0) #0 {
  %2 = alloca ptr, align 8
  %3 = alloca %struct.AVRational, align 4
  store ptr %0, ptr %2, align 8, !tbaa !4
  %4 = load ptr, ptr %2, align 8, !tbaa !4
  call void @llvm.memset.p0.i64(ptr align 8 %4, i8 0, i64 104, i1 false)
  %5 = load ptr, ptr %2, align 8, !tbaa !4
  %6 = getelementptr inbounds nuw %struct.AVPacket, ptr %5, i32 0, i32 1
  store i64 -9223372036854775808, ptr %6, align 8, !tbaa !9
  %7 = load ptr, ptr %2, align 8, !tbaa !4
  %8 = getelementptr inbounds nuw %struct.AVPacket, ptr %7, i32 0, i32 2
  store i64 -9223372036854775808, ptr %8, align 8, !tbaa !17
  %9 = load ptr, ptr %2, align 8, !tbaa !4
  %10 = getelementptr inbounds nuw %struct.AVPacket, ptr %9, i32 0, i32 10
  store i64 -1, ptr %10, align 8, !tbaa !18
  %11 = load ptr, ptr %2, align 8, !tbaa !4
  %12 = getelementptr inbounds nuw %struct.AVPacket, ptr %11, i32 0, i32 13
  call void @llvm.lifetime.start.p0(i64 8, ptr %3) #9
  %13 = call i64 @av_make_q(i32 noundef 0, i32 noundef 1)
  store i64 %13, ptr %3, align 4
  call void @llvm.memcpy.p0.p0.i64(ptr align 8 %12, ptr align 4 %3, i64 8, i1 false), !tbaa.struct !27
  call void @llvm.lifetime.end.p0(i64 8, ptr %3) #9
  ret void
}

; Function Attrs: nounwind uwtable
define void @av_packet_free_side_data(ptr noundef %0) #0 {
  %2 = alloca ptr, align 8
  %3 = alloca i32, align 4
  store ptr %0, ptr %2, align 8, !tbaa !4
  call void @llvm.lifetime.start.p0(i64 4, ptr %3) #9
  store i32 0, ptr %3, align 4, !tbaa !28
  br label %4

4:                                                ; preds = %18, %1
  %5 = load i32, ptr %3, align 4, !tbaa !28
  %6 = load ptr, ptr %2, align 8, !tbaa !4
  %7 = getelementptr inbounds nuw %struct.AVPacket, ptr %6, i32 0, i32 8
  %8 = load i32, ptr %7, align 8, !tbaa !24
  %9 = icmp slt i32 %5, %8
  br i1 %9, label %10, label %21

10:                                               ; preds = %4
  %11 = load ptr, ptr %2, align 8, !tbaa !4
  %12 = getelementptr inbounds nuw %struct.AVPacket, ptr %11, i32 0, i32 7
  %13 = load ptr, ptr %12, align 8, !tbaa !23
  %14 = load i32, ptr %3, align 4, !tbaa !28
  %15 = sext i32 %14 to i64
  %16 = getelementptr inbounds %struct.AVPacketSideData, ptr %13, i64 %15
  %17 = getelementptr inbounds nuw %struct.AVPacketSideData, ptr %16, i32 0, i32 0
  call void @av_freep(ptr noundef %17)
  br label %18

18:                                               ; preds = %10
  %19 = load i32, ptr %3, align 4, !tbaa !28
  %20 = add nsw i32 %19, 1
  store i32 %20, ptr %3, align 4, !tbaa !28
  br label %4, !llvm.loop !45

21:                                               ; preds = %4
  %22 = load ptr, ptr %2, align 8, !tbaa !4
  %23 = getelementptr inbounds nuw %struct.AVPacket, ptr %22, i32 0, i32 7
  call void @av_freep(ptr noundef %23)
  %24 = load ptr, ptr %2, align 8, !tbaa !4
  %25 = getelementptr inbounds nuw %struct.AVPacket, ptr %24, i32 0, i32 8
  store i32 0, ptr %25, align 8, !tbaa !24
  call void @llvm.lifetime.end.p0(i64 4, ptr %3) #9
  ret void
}

; Function Attrs: nounwind uwtable
define void @av_packet_unref(ptr noundef %0) #0 {
  %2 = alloca ptr, align 8
  store ptr %0, ptr %2, align 8, !tbaa !4
  %3 = load ptr, ptr %2, align 8, !tbaa !4
  call void @av_packet_free_side_data(ptr noundef %3)
  %4 = load ptr, ptr %2, align 8, !tbaa !4
  %5 = getelementptr inbounds nuw %struct.AVPacket, ptr %4, i32 0, i32 12
  call void @av_buffer_unref(ptr noundef %5)
  %6 = load ptr, ptr %2, align 8, !tbaa !4
  %7 = getelementptr inbounds nuw %struct.AVPacket, ptr %6, i32 0, i32 0
  call void @av_buffer_unref(ptr noundef %7)
  %8 = load ptr, ptr %2, align 8, !tbaa !4
  call void @get_packet_defaults(ptr noundef %8)
  ret void
}

; Function Attrs: nounwind uwtable
define internal i32 @packet_alloc(ptr noundef %0, i32 noundef %1) #0 {
  %3 = alloca i32, align 4
  %4 = alloca ptr, align 8
  %5 = alloca i32, align 4
  %6 = alloca i32, align 4
  %7 = alloca i32, align 4
  store ptr %0, ptr %4, align 8, !tbaa !40
  store i32 %1, ptr %5, align 4, !tbaa !28
  call void @llvm.lifetime.start.p0(i64 4, ptr %6) #9
  %8 = load i32, ptr %5, align 4, !tbaa !28
  %9 = icmp slt i32 %8, 0
  br i1 %9, label %13, label %10

10:                                               ; preds = %2
  %11 = load i32, ptr %5, align 4, !tbaa !28
  %12 = icmp sge i32 %11, 2147483583
  br i1 %12, label %13, label %14

13:                                               ; preds = %10, %2
  store i32 -22, ptr %3, align 4
  store i32 1, ptr %7, align 4
  br label %32

14:                                               ; preds = %10
  %15 = load ptr, ptr %4, align 8, !tbaa !40
  %16 = load i32, ptr %5, align 4, !tbaa !28
  %17 = add nsw i32 %16, 64
  %18 = sext i32 %17 to i64
  %19 = call i32 @av_buffer_realloc(ptr noundef %15, i64 noundef %18)
  store i32 %19, ptr %6, align 4, !tbaa !28
  %20 = load i32, ptr %6, align 4, !tbaa !28
  %21 = icmp slt i32 %20, 0
  br i1 %21, label %22, label %24

22:                                               ; preds = %14
  %23 = load i32, ptr %6, align 4, !tbaa !28
  store i32 %23, ptr %3, align 4
  store i32 1, ptr %7, align 4
  br label %32

24:                                               ; preds = %14
  %25 = load ptr, ptr %4, align 8, !tbaa !40
  %26 = load ptr, ptr %25, align 8, !tbaa !34
  %27 = getelementptr inbounds nuw %struct.AVBufferRef, ptr %26, i32 0, i32 1
  %28 = load ptr, ptr %27, align 8, !tbaa !35
  %29 = load i32, ptr %5, align 4, !tbaa !28
  %30 = sext i32 %29 to i64
  %31 = getelementptr inbounds i8, ptr %28, i64 %30
  call void @llvm.memset.p0.i64(ptr align 1 %31, i8 0, i64 64, i1 false)
  store i32 0, ptr %3, align 4
  store i32 1, ptr %7, align 4
  br label %32

32:                                               ; preds = %24, %22, %13
  call void @llvm.lifetime.end.p0(i64 4, ptr %6) #9
  %33 = load i32, ptr %3, align 4
  ret i32 %33
}

; Function Attrs: nounwind uwtable
define i32 @av_packet_ref(ptr noundef %0, ptr noundef %1) #0 {
  %3 = alloca i32, align 4
  %4 = alloca ptr, align 8
  %5 = alloca ptr, align 8
  %6 = alloca i32, align 4
  %7 = alloca i32, align 4
  store ptr %0, ptr %4, align 8, !tbaa !4
  store ptr %1, ptr %5, align 8, !tbaa !4
  call void @llvm.lifetime.start.p0(i64 4, ptr %6) #9
  %8 = load ptr, ptr %4, align 8, !tbaa !4
  %9 = getelementptr inbounds nuw %struct.AVPacket, ptr %8, i32 0, i32 0
  store ptr null, ptr %9, align 8, !tbaa !22
  %10 = load ptr, ptr %4, align 8, !tbaa !4
  %11 = load ptr, ptr %5, align 8, !tbaa !4
  %12 = call i32 @av_packet_copy_props(ptr noundef %10, ptr noundef %11)
  store i32 %12, ptr %6, align 4, !tbaa !28
  %13 = load i32, ptr %6, align 4, !tbaa !28
  %14 = icmp slt i32 %13, 0
  br i1 %14, label %15, label %16

15:                                               ; preds = %2
  br label %81

16:                                               ; preds = %2
  %17 = load ptr, ptr %5, align 8, !tbaa !4
  %18 = getelementptr inbounds nuw %struct.AVPacket, ptr %17, i32 0, i32 0
  %19 = load ptr, ptr %18, align 8, !tbaa !22
  %20 = icmp ne ptr %19, null
  br i1 %20, label %57, label %21

21:                                               ; preds = %16
  %22 = load ptr, ptr %4, align 8, !tbaa !4
  %23 = getelementptr inbounds nuw %struct.AVPacket, ptr %22, i32 0, i32 0
  %24 = load ptr, ptr %5, align 8, !tbaa !4
  %25 = getelementptr inbounds nuw %struct.AVPacket, ptr %24, i32 0, i32 4
  %26 = load i32, ptr %25, align 8, !tbaa !39
  %27 = call i32 @packet_alloc(ptr noundef %23, i32 noundef %26)
  store i32 %27, ptr %6, align 4, !tbaa !28
  %28 = load i32, ptr %6, align 4, !tbaa !28
  %29 = icmp slt i32 %28, 0
  br i1 %29, label %30, label %31

30:                                               ; preds = %21
  br label %81

31:                                               ; preds = %21
  %32 = load ptr, ptr %5, align 8, !tbaa !4
  %33 = getelementptr inbounds nuw %struct.AVPacket, ptr %32, i32 0, i32 4
  %34 = load i32, ptr %33, align 8, !tbaa !39
  %35 = icmp ne i32 %34, 0
  br i1 %35, label %36, label %49

36:                                               ; preds = %31
  %37 = load ptr, ptr %4, align 8, !tbaa !4
  %38 = getelementptr inbounds nuw %struct.AVPacket, ptr %37, i32 0, i32 0
  %39 = load ptr, ptr %38, align 8, !tbaa !22
  %40 = getelementptr inbounds nuw %struct.AVBufferRef, ptr %39, i32 0, i32 1
  %41 = load ptr, ptr %40, align 8, !tbaa !35
  %42 = load ptr, ptr %5, align 8, !tbaa !4
  %43 = getelementptr inbounds nuw %struct.AVPacket, ptr %42, i32 0, i32 3
  %44 = load ptr, ptr %43, align 8, !tbaa !38
  %45 = load ptr, ptr %5, align 8, !tbaa !4
  %46 = getelementptr inbounds nuw %struct.AVPacket, ptr %45, i32 0, i32 4
  %47 = load i32, ptr %46, align 8, !tbaa !39
  %48 = sext i32 %47 to i64
  call void @llvm.memcpy.p0.p0.i64(ptr align 1 %41, ptr align 1 %44, i64 %48, i1 false)
  br label %49

49:                                               ; preds = %36, %31
  %50 = load ptr, ptr %4, align 8, !tbaa !4
  %51 = getelementptr inbounds nuw %struct.AVPacket, ptr %50, i32 0, i32 0
  %52 = load ptr, ptr %51, align 8, !tbaa !22
  %53 = getelementptr inbounds nuw %struct.AVBufferRef, ptr %52, i32 0, i32 1
  %54 = load ptr, ptr %53, align 8, !tbaa !35
  %55 = load ptr, ptr %4, align 8, !tbaa !4
  %56 = getelementptr inbounds nuw %struct.AVPacket, ptr %55, i32 0, i32 3
  store ptr %54, ptr %56, align 8, !tbaa !38
  br label %75

57:                                               ; preds = %16
  %58 = load ptr, ptr %5, align 8, !tbaa !4
  %59 = getelementptr inbounds nuw %struct.AVPacket, ptr %58, i32 0, i32 0
  %60 = load ptr, ptr %59, align 8, !tbaa !22
  %61 = call ptr @av_buffer_ref(ptr noundef %60)
  %62 = load ptr, ptr %4, align 8, !tbaa !4
  %63 = getelementptr inbounds nuw %struct.AVPacket, ptr %62, i32 0, i32 0
  store ptr %61, ptr %63, align 8, !tbaa !22
  %64 = load ptr, ptr %4, align 8, !tbaa !4
  %65 = getelementptr inbounds nuw %struct.AVPacket, ptr %64, i32 0, i32 0
  %66 = load ptr, ptr %65, align 8, !tbaa !22
  %67 = icmp ne ptr %66, null
  br i1 %67, label %69, label %68

68:                                               ; preds = %57
  store i32 -12, ptr %6, align 4, !tbaa !28
  br label %81

69:                                               ; preds = %57
  %70 = load ptr, ptr %5, align 8, !tbaa !4
  %71 = getelementptr inbounds nuw %struct.AVPacket, ptr %70, i32 0, i32 3
  %72 = load ptr, ptr %71, align 8, !tbaa !38
  %73 = load ptr, ptr %4, align 8, !tbaa !4
  %74 = getelementptr inbounds nuw %struct.AVPacket, ptr %73, i32 0, i32 3
  store ptr %72, ptr %74, align 8, !tbaa !38
  br label %75

75:                                               ; preds = %69, %49
  %76 = load ptr, ptr %5, align 8, !tbaa !4
  %77 = getelementptr inbounds nuw %struct.AVPacket, ptr %76, i32 0, i32 4
  %78 = load i32, ptr %77, align 8, !tbaa !39
  %79 = load ptr, ptr %4, align 8, !tbaa !4
  %80 = getelementptr inbounds nuw %struct.AVPacket, ptr %79, i32 0, i32 4
  store i32 %78, ptr %80, align 8, !tbaa !39
  store i32 0, ptr %3, align 4
  store i32 1, ptr %7, align 4
  br label %84

81:                                               ; preds = %68, %30, %15
  %82 = load ptr, ptr %4, align 8, !tbaa !4
  call void @av_packet_unref(ptr noundef %82)
  %83 = load i32, ptr %6, align 4, !tbaa !28
  store i32 %83, ptr %3, align 4
  store i32 1, ptr %7, align 4
  br label %84

84:                                               ; preds = %81, %75
  call void @llvm.lifetime.end.p0(i64 4, ptr %6) #9
  %85 = load i32, ptr %3, align 4
  ret i32 %85
}