; Function Attrs: nounwind uwtable
define range(i32 -2147483648, 1) i32 @av_packet_ref(ptr noundef initializes((0, 24), (36, 44), (48, 60), (64, 104)) %0, ptr noundef readonly captures(none) %1) local_unnamed_addr #3 {
  store ptr null, ptr %0, align 8, !tbaa !20
  %3 = tail call i32 @av_packet_copy_props(ptr noundef nonnull %0, ptr noundef %1)
  %4 = icmp slt i32 %3, 0
  br i1 %4, label %packet_alloc.exit.thread, label %5

5:                                                ; preds = %2
  %6 = load ptr, ptr %1, align 8, !tbaa !20
  %.not = icmp eq ptr %6, null
  br i1 %.not, label %7, label %32

7:                                                ; preds = %5
  %8 = getelementptr inbounds nuw i8, ptr %1, i64 32
  %9 = load i32, ptr %8, align 8, !tbaa !32
  %or.cond.i = icmp ugt i32 %9, 2147483582
  br i1 %or.cond.i, label %packet_alloc.exit.thread, label %10

10:                                               ; preds = %7
  %11 = add nuw nsw i32 %9, 64
  %12 = zext nneg i32 %11 to i64
  %13 = tail call i32 @av_buffer_realloc(ptr noundef nonnull %0, i64 noundef %12) #16
  %14 = icmp slt i32 %13, 0
  br i1 %14, label %packet_alloc.exit.thread, label %15

15:                                               ; preds = %10
  %16 = load ptr, ptr %0, align 8, !tbaa !27
  %17 = getelementptr inbounds nuw i8, ptr %16, i64 8
  %18 = load ptr, ptr %17, align 8, !tbaa !28
  %19 = zext nneg i32 %9 to i64
  %20 = getelementptr inbounds nuw i8, ptr %18, i64 %19
  tail call void @llvm.memset.p0.i64(ptr noundef nonnull align 1 dereferenceable(64) %20, i8 0, i64 64, i1 false)
  %21 = load i32, ptr %8, align 8, !tbaa !32
  %.not28 = icmp eq i32 %21, 0
  br i1 %.not28, label %29, label %22

22:                                               ; preds = %15
  %23 = load ptr, ptr %0, align 8, !tbaa !20
  %24 = getelementptr inbounds nuw i8, ptr %23, i64 8
  %25 = load ptr, ptr %24, align 8, !tbaa !28
  %26 = getelementptr inbounds nuw i8, ptr %1, i64 24
  %27 = load ptr, ptr %26, align 8, !tbaa !31
  %28 = sext i32 %21 to i64
  tail call void @llvm.memcpy.p0.p0.i64(ptr align 1 %25, ptr align 1 %27, i64 %28, i1 false)
  br label %29

29:                                               ; preds = %22, %15
  %30 = load ptr, ptr %0, align 8, !tbaa !20
  %31 = getelementptr inbounds nuw i8, ptr %30, i64 8
  br label %36

32:                                               ; preds = %5
  %33 = tail call ptr @av_buffer_ref(ptr noundef nonnull %6) #16
  store ptr %33, ptr %0, align 8, !tbaa !20
  %.not29 = icmp eq ptr %33, null
  br i1 %.not29, label %packet_alloc.exit.thread, label %34

34:                                               ; preds = %32
  %35 = getelementptr inbounds nuw i8, ptr %1, i64 24
  br label %36

36:                                               ; preds = %34, %29
  %.sink.in = phi ptr [ %35, %34 ], [ %31, %29 ]
  %.sink = load ptr, ptr %.sink.in, align 8, !tbaa !39
  %37 = getelementptr inbounds nuw i8, ptr %0, i64 24
  store ptr %.sink, ptr %37, align 8, !tbaa !31
  %38 = getelementptr inbounds nuw i8, ptr %1, i64 32
  %39 = load i32, ptr %38, align 8, !tbaa !32
  %40 = getelementptr inbounds nuw i8, ptr %0, i64 32
  store i32 %39, ptr %40, align 8, !tbaa !32
  br label %57

packet_alloc.exit.thread:                         ; preds = %10, %7, %32, %2
  %.0 = phi i32 [ %3, %2 ], [ -12, %32 ], [ %13, %10 ], [ -22, %7 ]
  %41 = getelementptr inbounds nuw i8, ptr %0, i64 56
  %42 = load i32, ptr %41, align 8, !tbaa !22
  %43 = icmp sgt i32 %42, 0
  br i1 %43, label %.lr.ph.i.i, label %av_packet_unref.exit

.lr.ph.i.i:                                       ; preds = %packet_alloc.exit.thread
  %44 = getelementptr inbounds nuw i8, ptr %0, i64 48
  br label %45

45:                                               ; preds = %45, %.lr.ph.i.i
  %indvars.iv.i.i = phi i64 [ 0, %.lr.ph.i.i ], [ %indvars.iv.next.i.i, %45 ]
  %46 = load ptr, ptr %44, align 8, !tbaa !21
  %47 = getelementptr inbounds nuw %struct.AVPacketSideData, ptr %46, i64 %indvars.iv.i.i
  tail call void @av_freep(ptr noundef %47) #16
  %indvars.iv.next.i.i = add nuw nsw i64 %indvars.iv.i.i, 1
  %48 = load i32, ptr %41, align 8, !tbaa !22
  %49 = sext i32 %48 to i64
  %50 = icmp slt i64 %indvars.iv.next.i.i, %49
  br i1 %50, label %45, label %av_packet_unref.exit, !llvm.loop !25

av_packet_unref.exit:                             ; preds = %45, %packet_alloc.exit.thread
  %51 = getelementptr inbounds nuw i8, ptr %0, i64 48
  tail call void @av_freep(ptr noundef nonnull %51) #16
  store i32 0, ptr %41, align 8, !tbaa !22
  %52 = getelementptr inbounds nuw i8, ptr %0, i64 88
  tail call void @av_buffer_unref(ptr noundef nonnull %52) #16
  tail call void @av_buffer_unref(ptr noundef nonnull %0) #16
  tail call void @llvm.memset.p0.i64(ptr noundef nonnull align 8 dereferenceable(104) %0, i8 0, i64 96, i1 false)
  %53 = getelementptr inbounds nuw i8, ptr %0, i64 8
  store i64 -9223372036854775808, ptr %53, align 8, !tbaa !4
  %54 = getelementptr inbounds nuw i8, ptr %0, i64 16
  store i64 -9223372036854775808, ptr %54, align 8, !tbaa !15
  %55 = getelementptr inbounds nuw i8, ptr %0, i64 72
  store i64 -1, ptr %55, align 8, !tbaa !16
  %56 = getelementptr inbounds nuw i8, ptr %0, i64 96
  store i64 4294967296, ptr %56, align 8
  br label %57

57:                                               ; preds = %av_packet_unref.exit, %36
  %.023 = phi i32 [ %.0, %av_packet_unref.exit ], [ 0, %36 ]
  ret i32 %.023
}